; Function Attrs: mustprogress nofree norecurse nosync nounwind willreturn memory(argmem: readwrite) uwtable
define void @_ZN2cv4gapi5fluid4ViewC2EOS2_(ptr noundef nonnull writeonly align 8 captures(none) dereferenceable(16) initializes((0, 16)) %0, ptr noundef nonnull align 8 captures(none) dereferenceable(16) %1) unnamed_addr #14 align 2 {
  %3 = load i64, ptr %1, align 8, !tbaa !138
  store i64 %3, ptr %0, align 8, !tbaa !138
  store ptr null, ptr %1, align 8, !tbaa !138
  %4 = getelementptr inbounds nuw i8, ptr %0, i64 8
  %5 = getelementptr inbounds nuw i8, ptr %1, i64 8
  %6 = load ptr, ptr %5, align 8, !tbaa !165
  store ptr %6, ptr %4, align 8, !tbaa !165
  ret void
}